target datalayout = "e-m:e-p270:32:32-p271:32:32-p272:64:64-i64:64-i128:128-f80:128-n8:16:32:64-S128"
target triple = "x86_64-pc-linux-gnu"

%struct.LexState = type { i32, i32, i32, %struct.Token, %struct.Token, ptr, ptr, ptr, ptr, ptr, ptr, ptr, ptr }
%struct.Token = type { i32, %union.SemInfo }
%union.SemInfo = type { double }
%struct.Zio = type { i64, ptr, ptr, ptr, ptr }

; Function Attrs: nounwind uwtable
define internal i32 @check_next1(ptr noundef %0, i32 noundef %1) #0 {
  %3 = alloca i32, align 4
  %4 = alloca ptr, align 8
  %5 = alloca i32, align 4
  store ptr %0, ptr %4, align 8, !tbaa !18
  store i32 %1, ptr %5, align 4, !tbaa !11
  %6 = load ptr, ptr %4, align 8, !tbaa !18
  %7 = getelementptr inbounds nuw %struct.LexState, ptr %6, i32 0, i32 0
  %8 = load i32, ptr %7, align 8, !tbaa !55
  %9 = load i32, ptr %5, align 4, !tbaa !11
  %10 = icmp eq i32 %8, %9
  br i1 %10, label %11, label %37

11:                                               ; preds = %2
  %12 = load ptr, ptr %4, align 8, !tbaa !18
  %13 = getelementptr inbounds nuw %struct.LexState, ptr %12, i32 0, i32 7
  %14 = load ptr, ptr %13, align 8, !tbaa !57
  %15 = getelementptr inbounds nuw %struct.Zio, ptr %14, i32 0, i32 0
  %16 = load i64, ptr %15, align 8, !tbaa !68
  %17 = add i64 %16, -1
  store i64 %17, ptr %15, align 8, !tbaa !68
  %18 = icmp ugt i64 %16, 0
  br i1 %18, label %19, label %28

19:                                               ; preds = %11
  %20 = load ptr, ptr %4, align 8, !tbaa !18
  %21 = getelementptr inbounds nuw %struct.LexState, ptr %20, i32 0, i32 7
  %22 = load ptr, ptr %21, align 8, !tbaa !57
  %23 = getelementptr inbounds nuw %struct.Zio, ptr %22, i32 0, i32 1
  %24 = load ptr, ptr %23, align 8, !tbaa !70
  %25 = getelementptr inbounds nuw i8, ptr %24, i32 1
  store ptr %25, ptr %23, align 8, !tbaa !70
  %26 = load i8, ptr %24, align 1, !tbaa !20
  %27 = zext i8 %26 to i32
  br label %33

28:                                               ; preds = %11
  %29 = load ptr, ptr %4, align 8, !tbaa !18
  %30 = getelementptr inbounds nuw %struct.LexState, ptr %29, i32 0, i32 7
  %31 = load ptr, ptr %30, align 8, !tbaa !57
  %32 = call i32 @luaZ_fill(ptr noundef %31)
  br label %33

33:                                               ; preds = %28, %19
  %34 = phi i32 [ %27, %19 ], [ %32, %28 ]
  %35 = load ptr, ptr %4, align 8, !tbaa !18
  %36 = getelementptr inbounds nuw %struct.LexState, ptr %35, i32 0, i32 0
  store i32 %34, ptr %36, align 8, !tbaa !55
  store i32 1, ptr %3, align 4
  br label %38

37:                                               ; preds = %2
  store i32 0, ptr %3, align 4
  br label %38

38:                                               ; preds = %37, %33
  %39 = load i32, ptr %3, align 4
  ret i32 %39
}