; Function Attrs: nounwind uwtable
define internal fastcc range(i32 0, 2) i32 @check_next1(ptr noundef captures(none) %0, i32 noundef range(i32 46, 63) %1) unnamed_addr #0 {
  %3 = load i32, ptr %0, align 8, !tbaa !51
  %4 = icmp eq i32 %3, %1
  br i1 %4, label %5, label %20

5:                                                ; preds = %2
  %6 = getelementptr inbounds nuw i8, ptr %0, i64 64
  %7 = load ptr, ptr %6, align 8, !tbaa !53
  %8 = load i64, ptr %7, align 8, !tbaa !59
  %9 = add i64 %8, -1
  store i64 %9, ptr %7, align 8, !tbaa !59
  %.not = icmp eq i64 %8, 0
  br i1 %.not, label %16, label %10

10:                                               ; preds = %5
  %11 = getelementptr inbounds nuw i8, ptr %7, i64 8
  %12 = load ptr, ptr %11, align 8, !tbaa !61
  %13 = getelementptr inbounds nuw i8, ptr %12, i64 1
  store ptr %13, ptr %11, align 8, !tbaa !61
  %14 = load i8, ptr %12, align 1, !tbaa !13
  %15 = zext i8 %14 to i32
  br label %18

16:                                               ; preds = %5
  %17 = tail call i32 @luaZ_fill(ptr noundef nonnull %7) #6
  br label %18

18:                                               ; preds = %16, %10
  %19 = phi i32 [ %15, %10 ], [ %17, %16 ]
  store i32 %19, ptr %0, align 8, !tbaa !51
  br label %20

20:                                               ; preds = %2, %18
  %.0 = phi i32 [ 1, %18 ], [ 0, %2 ]
  ret i32 %.0
}